; Function Attrs: mustprogress uwtable
define void @_ZN6icu_7716RBBITableBuilder19flagAcceptingStatesEv(ptr noundef nonnull readonly align 8 captures(none) dereferenceable(52) %0) local_unnamed_addr #0 align 2 personality ptr @__gxx_personality_v0 {
  %2 = alloca %"class.icu_77::UVector", align 8
  %3 = getelementptr inbounds nuw i8, ptr %0, i64 16
  %4 = load ptr, ptr %3, align 8, !tbaa !15
  %5 = load i32, ptr %4, align 4, !tbaa !17
  %6 = icmp slt i32 %5, 1
  br i1 %6, label %7, label %88

7:                                                ; preds = %1
  call void @llvm.lifetime.start.p0(i64 40, ptr nonnull %2) #13
  call void @_ZN6icu_777UVectorC1ER10UErrorCode(ptr noundef nonnull align 8 dereferenceable(40) %2, ptr noundef nonnull align 4 dereferenceable(4) %4)
  %8 = load ptr, ptr %3, align 8, !tbaa !15
  %9 = load i32, ptr %8, align 4, !tbaa !17
  %10 = icmp slt i32 %9, 1
  br i1 %10, label %11, label %.loopexit

.loopexit31:                                      ; preds = %24
  %lpad.loopexit = landingpad { ptr, i32 }
          cleanup
  br label %89

.loopexit.split-lp:                               ; preds = %11
  %lpad.loopexit.split-lp = landingpad { ptr, i32 }
          cleanup
  br label %89

11:                                               ; preds = %7
  %12 = getelementptr inbounds nuw i8, ptr %0, i64 8
  %13 = load ptr, ptr %12, align 8, !tbaa !30
  %14 = load ptr, ptr %13, align 8, !tbaa !31
  invoke void @_ZN6icu_778RBBINode9findNodesEPNS_7UVectorENS0_8NodeTypeER10UErrorCode(ptr noundef nonnull align 8 dereferenceable(160) %14, ptr noundef nonnull %2, i32 noundef 6, ptr noundef nonnull align 4 dereferenceable(4) %8)
          to label %15 unwind label %.loopexit.split-lp

15:                                               ; preds = %11
  %16 = load ptr, ptr %3, align 8, !tbaa !15
  %17 = load i32, ptr %16, align 4, !tbaa !17
  %18 = icmp slt i32 %17, 1
  br i1 %18, label %.preheader30, label %.loopexit

.preheader30:                                     ; preds = %15
  %19 = getelementptr inbounds nuw i8, ptr %2, i64 8
  %20 = load i32, ptr %19, align 8, !tbaa !20
  %21 = icmp sgt i32 %20, 0
  br i1 %21, label %.lr.ph34, label %.loopexit

.lr.ph34:                                         ; preds = %.preheader30
  %22 = getelementptr inbounds nuw i8, ptr %0, i64 24
  %23 = getelementptr inbounds nuw i8, ptr %0, i64 40
  br label %24

24:                                               ; preds = %.lr.ph34, %._crit_edge
  %.033 = phi i32 [ 0, %.lr.ph34 ], [ %85, %._crit_edge ]
  %25 = invoke noundef ptr @_ZNK6icu_777UVector9elementAtEi(ptr noundef nonnull align 8 dereferenceable(40) %2, i32 noundef %.033)
          to label %.preheader unwind label %.loopexit31

.preheader:                                       ; preds = %24
  %26 = load ptr, ptr %22, align 8, !tbaa !19
  %27 = getelementptr inbounds nuw i8, ptr %26, i64 8
  %28 = load i32, ptr %27, align 8, !tbaa !20
  %29 = icmp sgt i32 %28, 0
  br i1 %29, label %.lr.ph, label %._crit_edge

.lr.ph:                                           ; preds = %.preheader
  %30 = getelementptr inbounds nuw i8, ptr %25, i64 124
  br label %31

31:                                               ; preds = %.lr.ph, %79
  %32 = phi ptr [ %26, %.lr.ph ], [ %81, %79 ]
  %.02132 = phi i32 [ 0, %.lr.ph ], [ %80, %79 ]
  %33 = invoke noundef ptr @_ZNK6icu_777UVector9elementAtEi(ptr noundef nonnull align 8 dereferenceable(40) %32, i32 noundef %.02132)
          to label %34 unwind label %59

34:                                               ; preds = %31
  %35 = getelementptr inbounds nuw i8, ptr %33, i64 32
  %36 = load ptr, ptr %35, align 8, !tbaa !64
  %37 = invoke noundef i32 @_ZNK6icu_777UVector7indexOfEPvi(ptr noundef nonnull align 8 dereferenceable(40) %36, ptr noundef %25, i32 noundef 0)
          to label %38 unwind label %59

38:                                               ; preds = %34
  %39 = icmp sgt i32 %37, -1
  br i1 %39, label %40, label %79

40:                                               ; preds = %38
  %41 = getelementptr inbounds nuw i8, ptr %33, i64 4
  %42 = load i32, ptr %41, align 4, !tbaa !81
  %43 = icmp eq i32 %42, 0
  br i1 %43, label %44, label %61

44:                                               ; preds = %40
  %45 = load ptr, ptr %23, align 8, !tbaa !29
  %46 = load i32, ptr %30, align 4, !tbaa !50
  %47 = icmp sgt i32 %46, -1
  %48 = getelementptr inbounds nuw i8, ptr %45, i64 8
  %49 = load i32, ptr %48, align 8
  %50 = icmp sgt i32 %49, %46
  %or.cond.i = select i1 %47, i1 %50, i1 false
  br i1 %or.cond.i, label %_ZNK6icu_779UVector3210elementAtiEi.exit, label %_ZNK6icu_779UVector3210elementAtiEi.exit.thread

_ZNK6icu_779UVector3210elementAtiEi.exit:         ; preds = %44
  %51 = getelementptr inbounds nuw i8, ptr %45, i64 24
  %52 = load ptr, ptr %51, align 8, !tbaa !74
  %53 = zext nneg i32 %46 to i64
  %54 = getelementptr inbounds nuw i32, ptr %52, i64 %53
  %55 = load i32, ptr %54, align 4, !tbaa !77
  %.fr = freeze i32 %55
  %56 = icmp eq i32 %.fr, 0
  br i1 %56, label %_ZNK6icu_779UVector3210elementAtiEi.exit.thread, label %57

_ZNK6icu_779UVector3210elementAtiEi.exit.thread:  ; preds = %44, %_ZNK6icu_779UVector3210elementAtiEi.exit
  br label %57

57:                                               ; preds = %_ZNK6icu_779UVector3210elementAtiEi.exit, %_ZNK6icu_779UVector3210elementAtiEi.exit.thread
  %58 = phi i32 [ 1, %_ZNK6icu_779UVector3210elementAtiEi.exit.thread ], [ %.fr, %_ZNK6icu_779UVector3210elementAtiEi.exit ]
  store i32 %58, ptr %41, align 4
  br label %61

59:                                               ; preds = %34, %31
  %60 = landingpad { ptr, i32 }
          cleanup
  br label %89

61:                                               ; preds = %57, %40
  %62 = phi i32 [ %58, %57 ], [ %42, %40 ]
  %63 = icmp eq i32 %62, 1
  br i1 %63, label %64, label %79

64:                                               ; preds = %61
  %65 = load i32, ptr %30, align 4, !tbaa !50
  %.not26 = icmp eq i32 %65, 0
  br i1 %.not26, label %79, label %66

66:                                               ; preds = %64
  %67 = load ptr, ptr %23, align 8, !tbaa !29
  %68 = icmp sgt i32 %65, -1
  %69 = getelementptr inbounds nuw i8, ptr %67, i64 8
  %70 = load i32, ptr %69, align 8
  %71 = icmp sgt i32 %70, %65
  %or.cond.i27 = select i1 %68, i1 %71, i1 false
  br i1 %or.cond.i27, label %72, label %_ZNK6icu_779UVector3210elementAtiEi.exit28

72:                                               ; preds = %66
  %73 = getelementptr inbounds nuw i8, ptr %67, i64 24
  %74 = load ptr, ptr %73, align 8, !tbaa !74
  %75 = zext nneg i32 %65 to i64
  %76 = getelementptr inbounds nuw i32, ptr %74, i64 %75
  %77 = load i32, ptr %76, align 4, !tbaa !77
  br label %_ZNK6icu_779UVector3210elementAtiEi.exit28

_ZNK6icu_779UVector3210elementAtiEi.exit28:       ; preds = %66, %72
  %78 = phi i32 [ %77, %72 ], [ 0, %66 ]
  store i32 %78, ptr %41, align 4, !tbaa !81
  br label %79

79:                                               ; preds = %61, %64, %_ZNK6icu_779UVector3210elementAtiEi.exit28, %38
  %80 = add nuw nsw i32 %.02132, 1
  %81 = load ptr, ptr %22, align 8, !tbaa !19
  %82 = getelementptr inbounds nuw i8, ptr %81, i64 8
  %83 = load i32, ptr %82, align 8, !tbaa !20
  %84 = icmp slt i32 %80, %83
  br i1 %84, label %31, label %._crit_edge, !llvm.loop !82

._crit_edge:                                      ; preds = %79, %.preheader
  %85 = add nuw nsw i32 %.033, 1
  %86 = load i32, ptr %19, align 8, !tbaa !20
  %87 = icmp slt i32 %85, %86
  br i1 %87, label %24, label %.loopexit, !llvm.loop !83

.loopexit:                                        ; preds = %._crit_edge, %.preheader30, %15, %7
  call void @_ZN6icu_777UVectorD1Ev(ptr noundef nonnull align 8 dereferenceable(40) %2) #13
  call void @llvm.lifetime.end.p0(i64 40, ptr nonnull %2) #13
  br label %88

88:                                               ; preds = %1, %.loopexit
  ret void

89:                                               ; preds = %.loopexit31, %.loopexit.split-lp, %59
  %.pn = phi { ptr, i32 } [ %60, %59 ], [ %lpad.loopexit, %.loopexit31 ], [ %lpad.loopexit.split-lp, %.loopexit.split-lp ]
  call void @_ZN6icu_777UVectorD1Ev(ptr noundef nonnull align 8 dereferenceable(40) %2) #13
  call void @llvm.lifetime.end.p0(i64 40, ptr nonnull %2) #13
  resume { ptr, i32 } %.pn
}